target datalayout = "e-m:e-p270:32:32-p271:32:32-p272:64:64-i64:64-i128:128-f80:128-n8:16:32:64-S128"
target triple = "x86_64-pc-linux-gnu"

%struct.png_struct_def = type { [1 x %struct.__jmp_buf_tag], ptr, ptr, i64, ptr, ptr, ptr, ptr, ptr, ptr, ptr, ptr, ptr, i8, i8, i32, i32, i32, i32, %struct.z_stream_s, ptr, i32, i32, i32, i32, i32, i32, i32, i32, i32, i32, i32, i32, i32, i32, i32, i32, i32, i32, i32, i32, i32, i64, i32, i32, i32, ptr, ptr, ptr, ptr, i64, i32, i32, ptr, i16, i32, i16, i8, i8, i8, i8, i8, i8, i8, i8, i8, i8, i8, i8, i8, i8, i8, i16, i8, i32, %struct.png_color_16_struct, %struct.png_color_16_struct, ptr, i32, i32, %struct.png_xy, i32, i32, i32, i32, i32, ptr, ptr, ptr, ptr, ptr, ptr, %struct.png_color_8_struct, %struct.png_color_8_struct, ptr, %struct.png_color_16_struct, ptr, ptr, ptr, ptr, ptr, ptr, ptr, ptr, ptr, i32, i32, i64, i64, i64, i64, i32, i32, ptr, ptr, i32, [29 x i8], i32, ptr, ptr, i32, i32, ptr, i8, i8, i16, i16, ptr, i32, i8, ptr, ptr, ptr, ptr, ptr, ptr, ptr, i8, i32, i32, i32, i64, %struct.png_unknown_chunk_t, i64, ptr, i64, i32, i32, ptr, [4 x ptr] }
%struct.__jmp_buf_tag = type { [8 x i64], i32, %struct.__sigset_t }
%struct.__sigset_t = type { [16 x i64] }
%struct.z_stream_s = type { ptr, i32, i64, ptr, i32, i64, ptr, ptr, ptr, ptr, ptr, i32, i64, i64 }
%struct.png_xy = type { i32, i32, i32, i32, i32, i32, i32, i32 }
%struct.png_color_8_struct = type { i8, i8, i8, i8, i8 }
%struct.png_color_16_struct = type { i8, i16, i16, i16, i16 }
%struct.png_unknown_chunk_t = type { [5 x i8], ptr, i64, i8 }

@.str.1 = private unnamed_addr constant [49 x i8] c"Application must supply a known background gamma\00", align 1
@.str.18 = private unnamed_addr constant [59 x i8] c"invalid after png_start_read_image or png_read_update_info\00", align 1
@.str.19 = private unnamed_addr constant [44 x i8] c"invalid before the PNG header has been read\00", align 1

; Function Attrs: nounwind uwtable
define internal i32 @png_rtran_ok(ptr noalias noundef %0, i32 noundef %1) #0 {
  %3 = alloca i32, align 4
  %4 = alloca ptr, align 8
  %5 = alloca i32, align 4
  store ptr %0, ptr %4, align 8, !tbaa !3
  store i32 %1, ptr %5, align 4, !tbaa !8
  %6 = load ptr, ptr %4, align 8, !tbaa !3
  %7 = icmp ne ptr %6, null
  br i1 %7, label %8, label %34

8:                                                ; preds = %2
  %9 = load ptr, ptr %4, align 8, !tbaa !3
  %10 = getelementptr inbounds nuw %struct.png_struct_def, ptr %9, i32 0, i32 16
  %11 = load i32, ptr %10, align 8, !tbaa !10
  %12 = and i32 %11, 64
  %13 = icmp ne i32 %12, 0
  br i1 %13, label %14, label %16

14:                                               ; preds = %8
  %15 = load ptr, ptr %4, align 8, !tbaa !3
  call void @png_app_error(ptr noundef %15, ptr noundef @.str.18)
  br label %33

16:                                               ; preds = %8
  %17 = load i32, ptr %5, align 4, !tbaa !8
  %18 = icmp ne i32 %17, 0
  br i1 %18, label %19, label %27

19:                                               ; preds = %16
  %20 = load ptr, ptr %4, align 8, !tbaa !3
  %21 = getelementptr inbounds nuw %struct.png_struct_def, ptr %20, i32 0, i32 15
  %22 = load i32, ptr %21, align 4, !tbaa !33
  %23 = and i32 %22, 1
  %24 = icmp eq i32 %23, 0
  br i1 %24, label %25, label %27

25:                                               ; preds = %19
  %26 = load ptr, ptr %4, align 8, !tbaa !3
  call void @png_app_error(ptr noundef %26, ptr noundef @.str.19)
  br label %32

27:                                               ; preds = %19, %16
  %28 = load ptr, ptr %4, align 8, !tbaa !3
  %29 = getelementptr inbounds nuw %struct.png_struct_def, ptr %28, i32 0, i32 16
  %30 = load i32, ptr %29, align 8, !tbaa !10
  %31 = or i32 %30, 16384
  store i32 %31, ptr %29, align 8, !tbaa !10
  store i32 1, ptr %3, align 4
  br label %35

32:                                               ; preds = %25
  br label %33

33:                                               ; preds = %32, %14
  br label %34

34:                                               ; preds = %33, %2
  store i32 0, ptr %3, align 4
  br label %35

35:                                               ; preds = %34, %27
  %36 = load i32, ptr %3, align 4
  ret i32 %36
}

; Function Attrs: nounwind uwtable
define void @png_set_background_fixed(ptr noalias noundef %0, ptr noundef %1, i32 noundef %2, i32 noundef %3, i32 noundef %4) #0 {
  %6 = alloca ptr, align 8
  %7 = alloca ptr, align 8
  %8 = alloca i32, align 4
  %9 = alloca i32, align 4
  %10 = alloca i32, align 4
  store ptr %0, ptr %6, align 8, !tbaa !3
  store ptr %1, ptr %7, align 8, !tbaa !25
  store i32 %2, ptr %8, align 4, !tbaa !8
  store i32 %3, ptr %9, align 4, !tbaa !8
  store i32 %4, ptr %10, align 4, !tbaa !8
  %11 = load ptr, ptr %6, align 8, !tbaa !3
  %12 = call i32 @png_rtran_ok(ptr noundef %11, i32 noundef 0)
  %13 = icmp eq i32 %12, 0
  br i1 %13, label %17, label %14

14:                                               ; preds = %5
  %15 = load ptr, ptr %7, align 8, !tbaa !25
  %16 = icmp eq ptr %15, null
  br i1 %16, label %17, label %18

17:                                               ; preds = %14, %5
  br label %58

18:                                               ; preds = %14
  %19 = load i32, ptr %8, align 4, !tbaa !8
  %20 = icmp eq i32 %19, 0
  br i1 %20, label %21, label %23

21:                                               ; preds = %18
  %22 = load ptr, ptr %6, align 8, !tbaa !3
  call void @png_warning(ptr noundef %22, ptr noundef @.str.1)
  br label %58

23:                                               ; preds = %18
  %24 = load ptr, ptr %6, align 8, !tbaa !3
  %25 = getelementptr inbounds nuw %struct.png_struct_def, ptr %24, i32 0, i32 17
  %26 = load i32, ptr %25, align 4, !tbaa !27
  %27 = or i32 %26, 262272
  store i32 %27, ptr %25, align 4, !tbaa !27
  %28 = load ptr, ptr %6, align 8, !tbaa !3
  %29 = getelementptr inbounds nuw %struct.png_struct_def, ptr %28, i32 0, i32 17
  %30 = load i32, ptr %29, align 4, !tbaa !27
  %31 = and i32 %30, -8388609
  store i32 %31, ptr %29, align 4, !tbaa !27
  %32 = load ptr, ptr %6, align 8, !tbaa !3
  %33 = getelementptr inbounds nuw %struct.png_struct_def, ptr %32, i32 0, i32 16
  %34 = load i32, ptr %33, align 8, !tbaa !10
  %35 = and i32 %34, -8193
  store i32 %35, ptr %33, align 8, !tbaa !10
  %36 = load ptr, ptr %6, align 8, !tbaa !3
  %37 = getelementptr inbounds nuw %struct.png_struct_def, ptr %36, i32 0, i32 75
  %38 = load ptr, ptr %7, align 8, !tbaa !25
  call void @llvm.memcpy.p0.p0.i64(ptr align 4 %37, ptr align 2 %38, i64 10, i1 false), !tbaa.struct !28
  %39 = load i32, ptr %10, align 4, !tbaa !8
  %40 = load ptr, ptr %6, align 8, !tbaa !3
  %41 = getelementptr inbounds nuw %struct.png_struct_def, ptr %40, i32 0, i32 74
  store i32 %39, ptr %41, align 8, !tbaa !31
  %42 = load i32, ptr %8, align 4, !tbaa !8
  %43 = trunc i32 %42 to i8
  %44 = load ptr, ptr %6, align 8, !tbaa !3
  %45 = getelementptr inbounds nuw %struct.png_struct_def, ptr %44, i32 0, i32 73
  store i8 %43, ptr %45, align 4, !tbaa !32
  %46 = load i32, ptr %9, align 4, !tbaa !8
  %47 = icmp ne i32 %46, 0
  br i1 %47, label %48, label %53

48:                                               ; preds = %23
  %49 = load ptr, ptr %6, align 8, !tbaa !3
  %50 = getelementptr inbounds nuw %struct.png_struct_def, ptr %49, i32 0, i32 17
  %51 = load i32, ptr %50, align 4, !tbaa !27
  %52 = or i32 %51, 256
  store i32 %52, ptr %50, align 4, !tbaa !27
  br label %58

53:                                               ; preds = %23
  %54 = load ptr, ptr %6, align 8, !tbaa !3
  %55 = getelementptr inbounds nuw %struct.png_struct_def, ptr %54, i32 0, i32 17
  %56 = load i32, ptr %55, align 4, !tbaa !27
  %57 = and i32 %56, -257
  store i32 %57, ptr %55, align 4, !tbaa !27
  br label %58

58:                                               ; preds = %17, %21, %53, %48
  ret void
}