; Function Attrs: nounwind uwtable
define void @png_set_background_fixed(ptr noalias noundef %0, ptr noundef readonly captures(address_is_null) %1, i32 noundef %2, i32 noundef %3, i32 noundef %4) local_unnamed_addr #0 {
  %.not.i = icmp eq ptr %0, null
  br i1 %.not.i, label %png_rtran_ok.exit.thread, label %6

6:                                                ; preds = %5
  %7 = getelementptr inbounds nuw i8, ptr %0, i64 304
  %8 = load i32, ptr %7, align 8, !tbaa !3, !alias.scope !22
  %9 = and i32 %8, 64
  %.not8.i = icmp eq i32 %9, 0
  br i1 %.not8.i, label %png_rtran_ok.exit, label %10

10:                                               ; preds = %6
  tail call void @png_app_error(ptr noundef nonnull %0, ptr noundef nonnull @.str.18) #11
  br label %png_rtran_ok.exit.thread

png_rtran_ok.exit:                                ; preds = %6
  %11 = or i32 %8, 16384
  store i32 %11, ptr %7, align 8, !tbaa !3, !alias.scope !22
  %12 = icmp eq ptr %1, null
  br i1 %12, label %png_rtran_ok.exit.thread, label %13

13:                                               ; preds = %png_rtran_ok.exit
  %14 = icmp eq i32 %2, 0
  br i1 %14, label %15, label %16

15:                                               ; preds = %13
  tail call void @png_warning(ptr noundef nonnull %0, ptr noundef nonnull @.str.1) #11
  br label %png_rtran_ok.exit.thread

16:                                               ; preds = %13
  %17 = getelementptr inbounds nuw i8, ptr %0, i64 308
  %18 = load i32, ptr %17, align 4, !tbaa !25
  %19 = and i32 %11, -8257
  store i32 %19, ptr %7, align 8, !tbaa !3
  %20 = getelementptr inbounds nuw i8, ptr %0, i64 644
  tail call void @llvm.memcpy.p0.p0.i64(ptr noundef nonnull align 4 dereferenceable(10) %20, ptr noundef nonnull align 2 dereferenceable(10) %1, i64 10, i1 false), !tbaa.struct !26
  %21 = getelementptr inbounds nuw i8, ptr %0, i64 640
  store i32 %4, ptr %21, align 8, !tbaa !29
  %22 = trunc i32 %2 to i8
  %23 = getelementptr inbounds nuw i8, ptr %0, i64 636
  store i8 %22, ptr %23, align 4, !tbaa !30
  %.not = icmp eq i32 %3, 0
  %24 = and i32 %18, -8651137
  br i1 %.not, label %27, label %25

25:                                               ; preds = %16
  %26 = or disjoint i32 %24, 262528
  store i32 %26, ptr %17, align 4, !tbaa !25
  br label %png_rtran_ok.exit.thread

27:                                               ; preds = %16
  %28 = or disjoint i32 %24, 262272
  store i32 %28, ptr %17, align 4, !tbaa !25
  br label %png_rtran_ok.exit.thread

png_rtran_ok.exit.thread:                         ; preds = %5, %10, %png_rtran_ok.exit, %27, %25, %15
  ret void
}